; Function Attrs: mustprogress uwtable
define hidden void @_ZN2cv16Jpeg2KOpjEncoderC2Ev(ptr noundef nonnull align 8 dereferenceable(120) %0) unnamed_addr #3 align 2 personality ptr @__gxx_personality_v0 {
  tail call void @_ZN2cv16BaseImageEncoderC2Ev(ptr noundef nonnull align 8 dereferenceable(120) %0)
  store ptr getelementptr inbounds inrange(-16, 80) (i8, ptr @_ZTVN2cv16Jpeg2KOpjEncoderE, i64 16), ptr %0, align 8
  %2 = getelementptr inbounds i8, ptr %0, i64 8
  %3 = invoke noundef nonnull align 8 dereferenceable(32) ptr @_ZNSt7__cxx1112basic_stringIcSt11char_traitsIcESaIcEEaSEPKc(ptr noundef nonnull align 8 dereferenceable(32) %2, ptr noundef nonnull @.str.30)
          to label %4 unwind label %5

4:                                                ; preds = %1
  ret void

5:                                                ; preds = %1
  %6 = landingpad { ptr, i32 }
          cleanup
  tail call void @_ZN2cv16BaseImageEncoderD2Ev(ptr noundef nonnull align 8 dereferenceable(120) %0) #19
  resume { ptr, i32 } %6
}